target datalayout = "e-m:e-p270:32:32-p271:32:32-p272:64:64-i64:64-i128:128-f80:128-n8:16:32:64-S128"
target triple = "x86_64-unknown-linux-gnu"

%"class.icu_75::RuleCharacterIterator" = type <{ ptr, ptr, ptr, ptr, i32, [4 x i8] }>
%"class.icu_75::ParsePosition" = type { %"class.icu_75::UObject", i32, i32 }
%"class.icu_75::UObject" = type { ptr }
%"struct.icu_75::RuleCharacterIterator::Pos" = type { ptr, i32, i32 }

; Function Attrs: mustprogress nounwind uwtable
define linkonce_odr void @_ZN6icu_7513ParsePosition8setIndexEi(ptr noundef nonnull align 8 dereferenceable(16) %this, i32 noundef %offset) #0 comdat align 2 {
entry:
  %this.addr = alloca ptr, align 8
  %offset.addr = alloca i32, align 4
  store ptr %this, ptr %this.addr, align 8
  store i32 %offset, ptr %offset.addr, align 4
  %this1 = load ptr, ptr %this.addr, align 8
  %0 = load i32, ptr %offset.addr, align 4
  %index = getelementptr inbounds %"class.icu_75::ParsePosition", ptr %this1, i32 0, i32 1
  store i32 %0, ptr %index, align 8
  ret void
}

; Function Attrs: mustprogress uwtable
define void @_ZN6icu_7521RuleCharacterIterator6setPosERKNS0_3PosE(ptr noundef nonnull align 8 dereferenceable(36) %this, ptr noundef nonnull align 8 dereferenceable(16) %p) #1 align 2 {
entry:
  %this.addr = alloca ptr, align 8
  %p.addr = alloca ptr, align 8
  store ptr %this, ptr %this.addr, align 8
  store ptr %p, ptr %p.addr, align 8
  %this1 = load ptr, ptr %this.addr, align 8
  %0 = load ptr, ptr %p.addr, align 8
  %buf = getelementptr inbounds %"struct.icu_75::RuleCharacterIterator::Pos", ptr %0, i32 0, i32 0
  %1 = load ptr, ptr %buf, align 8
  %buf2 = getelementptr inbounds %"class.icu_75::RuleCharacterIterator", ptr %this1, i32 0, i32 3
  store ptr %1, ptr %buf2, align 8
  %pos = getelementptr inbounds %"class.icu_75::RuleCharacterIterator", ptr %this1, i32 0, i32 1
  %2 = load ptr, ptr %pos, align 8
  %3 = load ptr, ptr %p.addr, align 8
  %pos3 = getelementptr inbounds %"struct.icu_75::RuleCharacterIterator::Pos", ptr %3, i32 0, i32 1
  %4 = load i32, ptr %pos3, align 8
  call void @_ZN6icu_7513ParsePosition8setIndexEi(ptr noundef nonnull align 8 dereferenceable(16) %2, i32 noundef %4)
  %5 = load ptr, ptr %p.addr, align 8
  %bufPos = getelementptr inbounds %"struct.icu_75::RuleCharacterIterator::Pos", ptr %5, i32 0, i32 2
  %6 = load i32, ptr %bufPos, align 4
  %bufPos4 = getelementptr inbounds %"class.icu_75::RuleCharacterIterator", ptr %this1, i32 0, i32 4
  store i32 %6, ptr %bufPos4, align 8
  ret void
}