; Function Attrs: mustprogress nofree norecurse nosync nounwind willreturn memory(write, argmem: readwrite, inaccessiblemem: none) uwtable
define void @_ZN6icu_7521RuleCharacterIterator6setPosERKNS0_3PosE(ptr nocapture noundef nonnull align 8 dereferenceable(36) %this, ptr nocapture noundef nonnull readonly align 8 dereferenceable(16) %p) local_unnamed_addr #7 align 2 {
entry:
  %0 = load ptr, ptr %p, align 8
  %buf2 = getelementptr inbounds i8, ptr %this, i64 24
  store ptr %0, ptr %buf2, align 8
  %pos = getelementptr inbounds i8, ptr %this, i64 8
  %1 = load ptr, ptr %pos, align 8
  %pos3 = getelementptr inbounds i8, ptr %p, i64 8
  %2 = load i32, ptr %pos3, align 8
  %index.i = getelementptr inbounds i8, ptr %1, i64 8
  store i32 %2, ptr %index.i, align 8
  %bufPos = getelementptr inbounds i8, ptr %p, i64 12
  %3 = load i32, ptr %bufPos, align 4
  %bufPos4 = getelementptr inbounds i8, ptr %this, i64 32
  store i32 %3, ptr %bufPos4, align 8
  ret void
}